target datalayout = "e-m:e-p270:32:32-p271:32:32-p272:64:64-i64:64-i128:128-f80:128-n8:16:32:64-S128"
target triple = "x86_64-pc-linux-gnu"

; Function Attrs: inlinehint mustprogress nounwind willreturn memory(read) uwtable
define available_externally i32 @isxdigit(i32 noundef %0) #8 {
  %2 = alloca i32, align 4
  store i32 %0, ptr %2, align 4, !tbaa !24
  %3 = call ptr @__ctype_b_loc() #16
  %4 = load ptr, ptr %3, align 8, !tbaa !102
  %5 = load i32, ptr %2, align 4, !tbaa !24
  %6 = sext i32 %5 to i64
  %7 = getelementptr inbounds i16, ptr %4, i64 %6
  %8 = load i16, ptr %7, align 2, !tbaa !104
  %9 = zext i16 %8 to i32
  %10 = and i32 %9, 4096
  ret i32 %10
}

; Function Attrs: inlinehint mustprogress nounwind willreturn memory(read) uwtable
define available_externally i32 @isalnum(i32 noundef %0) #8 {
  %2 = alloca i32, align 4
  store i32 %0, ptr %2, align 4, !tbaa !24
  %3 = call ptr @__ctype_b_loc() #16
  %4 = load ptr, ptr %3, align 8, !tbaa !102
  %5 = load i32, ptr %2, align 4, !tbaa !24
  %6 = sext i32 %5 to i64
  %7 = getelementptr inbounds i16, ptr %4, i64 %6
  %8 = load i16, ptr %7, align 2, !tbaa !104
  %9 = zext i16 %8 to i32
  %10 = and i32 %9, 8
  ret i32 %10
}

; Function Attrs: inlinehint mustprogress nounwind willreturn memory(read) uwtable
define available_externally i32 @isupper(i32 noundef %0) #8 {
  %2 = alloca i32, align 4
  store i32 %0, ptr %2, align 4, !tbaa !24
  %3 = call ptr @__ctype_b_loc() #16
  %4 = load ptr, ptr %3, align 8, !tbaa !102
  %5 = load i32, ptr %2, align 4, !tbaa !24
  %6 = sext i32 %5 to i64
  %7 = getelementptr inbounds i16, ptr %4, i64 %6
  %8 = load i16, ptr %7, align 2, !tbaa !104
  %9 = zext i16 %8 to i32
  %10 = and i32 %9, 256
  ret i32 %10
}

; Function Attrs: inlinehint mustprogress nounwind willreturn memory(read) uwtable
define available_externally i32 @isspace(i32 noundef %0) #8 {
  %2 = alloca i32, align 4
  store i32 %0, ptr %2, align 4, !tbaa !24
  %3 = call ptr @__ctype_b_loc() #16
  %4 = load ptr, ptr %3, align 8, !tbaa !102
  %5 = load i32, ptr %2, align 4, !tbaa !24
  %6 = sext i32 %5 to i64
  %7 = getelementptr inbounds i16, ptr %4, i64 %6
  %8 = load i16, ptr %7, align 2, !tbaa !104
  %9 = zext i16 %8 to i32
  %10 = and i32 %9, 8192
  ret i32 %10
}

; Function Attrs: inlinehint mustprogress nounwind willreturn memory(read) uwtable
define available_externally i32 @ispunct(i32 noundef %0) #8 {
  %2 = alloca i32, align 4
  store i32 %0, ptr %2, align 4, !tbaa !24
  %3 = call ptr @__ctype_b_loc() #16
  %4 = load ptr, ptr %3, align 8, !tbaa !102
  %5 = load i32, ptr %2, align 4, !tbaa !24
  %6 = sext i32 %5 to i64
  %7 = getelementptr inbounds i16, ptr %4, i64 %6
  %8 = load i16, ptr %7, align 2, !tbaa !104
  %9 = zext i16 %8 to i32
  %10 = and i32 %9, 4
  ret i32 %10
}

; Function Attrs: inlinehint mustprogress nounwind willreturn memory(read) uwtable
define available_externally i32 @islower(i32 noundef %0) #8 {
  %2 = alloca i32, align 4
  store i32 %0, ptr %2, align 4, !tbaa !24
  %3 = call ptr @__ctype_b_loc() #16
  %4 = load ptr, ptr %3, align 8, !tbaa !102
  %5 = load i32, ptr %2, align 4, !tbaa !24
  %6 = sext i32 %5 to i64
  %7 = getelementptr inbounds i16, ptr %4, i64 %6
  %8 = load i16, ptr %7, align 2, !tbaa !104
  %9 = zext i16 %8 to i32
  %10 = and i32 %9, 512
  ret i32 %10
}

; Function Attrs: inlinehint mustprogress nounwind willreturn memory(read) uwtable
define available_externally i32 @isgraph(i32 noundef %0) #8 {
  %2 = alloca i32, align 4
  store i32 %0, ptr %2, align 4, !tbaa !24
  %3 = call ptr @__ctype_b_loc() #16
  %4 = load ptr, ptr %3, align 8, !tbaa !102
  %5 = load i32, ptr %2, align 4, !tbaa !24
  %6 = sext i32 %5 to i64
  %7 = getelementptr inbounds i16, ptr %4, i64 %6
  %8 = load i16, ptr %7, align 2, !tbaa !104
  %9 = zext i16 %8 to i32
  %10 = and i32 %9, 32768
  ret i32 %10
}

; Function Attrs: inlinehint mustprogress nounwind willreturn memory(read) uwtable
define available_externally i32 @isdigit(i32 noundef %0) #8 {
  %2 = alloca i32, align 4
  store i32 %0, ptr %2, align 4, !tbaa !24
  %3 = call ptr @__ctype_b_loc() #16
  %4 = load ptr, ptr %3, align 8, !tbaa !102
  %5 = load i32, ptr %2, align 4, !tbaa !24
  %6 = sext i32 %5 to i64
  %7 = getelementptr inbounds i16, ptr %4, i64 %6
  %8 = load i16, ptr %7, align 2, !tbaa !104
  %9 = zext i16 %8 to i32
  %10 = and i32 %9, 2048
  ret i32 %10
}

; Function Attrs: inlinehint mustprogress nounwind willreturn memory(read) uwtable
define available_externally i32 @iscntrl(i32 noundef %0) #8 {
  %2 = alloca i32, align 4
  store i32 %0, ptr %2, align 4, !tbaa !24
  %3 = call ptr @__ctype_b_loc() #16
  %4 = load ptr, ptr %3, align 8, !tbaa !102
  %5 = load i32, ptr %2, align 4, !tbaa !24
  %6 = sext i32 %5 to i64
  %7 = getelementptr inbounds i16, ptr %4, i64 %6
  %8 = load i16, ptr %7, align 2, !tbaa !104
  %9 = zext i16 %8 to i32
  %10 = and i32 %9, 2
  ret i32 %10
}

; Function Attrs: inlinehint mustprogress nounwind willreturn memory(read) uwtable
define available_externally i32 @isalpha(i32 noundef %0) #8 {
  %2 = alloca i32, align 4
  store i32 %0, ptr %2, align 4, !tbaa !24
  %3 = call ptr @__ctype_b_loc() #16
  %4 = load ptr, ptr %3, align 8, !tbaa !102
  %5 = load i32, ptr %2, align 4, !tbaa !24
  %6 = sext i32 %5 to i64
  %7 = getelementptr inbounds i16, ptr %4, i64 %6
  %8 = load i16, ptr %7, align 2, !tbaa !104
  %9 = zext i16 %8 to i32
  %10 = and i32 %9, 1024
  ret i32 %10
}

; Function Attrs: inlinehint mustprogress nounwind willreturn memory(read) uwtable
define available_externally i32 @tolower(i32 noundef %0) #8 {
  %2 = alloca i32, align 4
  store i32 %0, ptr %2, align 4, !tbaa !24
  %3 = load i32, ptr %2, align 4, !tbaa !24
  %4 = icmp sge i32 %3, -128
  br i1 %4, label %5, label %15

5:                                                ; preds = %1
  %6 = load i32, ptr %2, align 4, !tbaa !24
  %7 = icmp slt i32 %6, 256
  br i1 %7, label %8, label %15

8:                                                ; preds = %5
  %9 = call ptr @__ctype_tolower_loc() #16
  %10 = load ptr, ptr %9, align 8, !tbaa !100
  %11 = load i32, ptr %2, align 4, !tbaa !24
  %12 = sext i32 %11 to i64
  %13 = getelementptr inbounds i32, ptr %10, i64 %12
  %14 = load i32, ptr %13, align 4, !tbaa !24
  br label %17

15:                                               ; preds = %5, %1
  %16 = load i32, ptr %2, align 4, !tbaa !24
  br label %17

17:                                               ; preds = %15, %8
  %18 = phi i32 [ %14, %8 ], [ %16, %15 ]
  ret i32 %18
}

; Function Attrs: mustprogress nounwind uwtable
define internal noundef i32 @_ZL11match_classii(i32 noundef %0, i32 noundef %1) #1 {
  %3 = alloca i32, align 4
  %4 = alloca i32, align 4
  %5 = alloca i32, align 4
  %6 = alloca i32, align 4
  %7 = alloca i32, align 4
  store i32 %0, ptr %4, align 4, !tbaa !24
  store i32 %1, ptr %5, align 4, !tbaa !24
  call void @llvm.lifetime.start.p0(i64 4, ptr %6) #13
  %8 = load i32, ptr %5, align 4, !tbaa !24
  %9 = call i32 @tolower(i32 noundef %8) #15
  switch i32 %9, label %44 [
    i32 97, label %10
    i32 99, label %13
    i32 100, label %16
    i32 103, label %19
    i32 108, label %22
    i32 112, label %25
    i32 115, label %28
    i32 117, label %31
    i32 119, label %34
    i32 120, label %37
    i32 122, label %40
  ]

10:                                               ; preds = %2
  %11 = load i32, ptr %4, align 4, !tbaa !24
  %12 = call i32 @isalpha(i32 noundef %11) #15
  store i32 %12, ptr %6, align 4, !tbaa !24
  br label %49

13:                                               ; preds = %2
  %14 = load i32, ptr %4, align 4, !tbaa !24
  %15 = call i32 @iscntrl(i32 noundef %14) #15
  store i32 %15, ptr %6, align 4, !tbaa !24
  br label %49

16:                                               ; preds = %2
  %17 = load i32, ptr %4, align 4, !tbaa !24
  %18 = call i32 @isdigit(i32 noundef %17) #15
  store i32 %18, ptr %6, align 4, !tbaa !24
  br label %49

19:                                               ; preds = %2
  %20 = load i32, ptr %4, align 4, !tbaa !24
  %21 = call i32 @isgraph(i32 noundef %20) #15
  store i32 %21, ptr %6, align 4, !tbaa !24
  br label %49

22:                                               ; preds = %2
  %23 = load i32, ptr %4, align 4, !tbaa !24
  %24 = call i32 @islower(i32 noundef %23) #15
  store i32 %24, ptr %6, align 4, !tbaa !24
  br label %49

25:                                               ; preds = %2
  %26 = load i32, ptr %4, align 4, !tbaa !24
  %27 = call i32 @ispunct(i32 noundef %26) #15
  store i32 %27, ptr %6, align 4, !tbaa !24
  br label %49

28:                                               ; preds = %2
  %29 = load i32, ptr %4, align 4, !tbaa !24
  %30 = call i32 @isspace(i32 noundef %29) #15
  store i32 %30, ptr %6, align 4, !tbaa !24
  br label %49

31:                                               ; preds = %2
  %32 = load i32, ptr %4, align 4, !tbaa !24
  %33 = call i32 @isupper(i32 noundef %32) #15
  store i32 %33, ptr %6, align 4, !tbaa !24
  br label %49

34:                                               ; preds = %2
  %35 = load i32, ptr %4, align 4, !tbaa !24
  %36 = call i32 @isalnum(i32 noundef %35) #15
  store i32 %36, ptr %6, align 4, !tbaa !24
  br label %49

37:                                               ; preds = %2
  %38 = load i32, ptr %4, align 4, !tbaa !24
  %39 = call i32 @isxdigit(i32 noundef %38) #15
  store i32 %39, ptr %6, align 4, !tbaa !24
  br label %49

40:                                               ; preds = %2
  %41 = load i32, ptr %4, align 4, !tbaa !24
  %42 = icmp eq i32 %41, 0
  %43 = zext i1 %42 to i32
  store i32 %43, ptr %6, align 4, !tbaa !24
  br label %49

44:                                               ; preds = %2
  %45 = load i32, ptr %5, align 4, !tbaa !24
  %46 = load i32, ptr %4, align 4, !tbaa !24
  %47 = icmp eq i32 %45, %46
  %48 = zext i1 %47 to i32
  store i32 %48, ptr %3, align 4
  store i32 1, ptr %7, align 4
  br label %62

49:                                               ; preds = %40, %37, %34, %31, %28, %25, %22, %19, %16, %13, %10
  %50 = load i32, ptr %5, align 4, !tbaa !24
  %51 = call i32 @islower(i32 noundef %50) #15
  %52 = icmp ne i32 %51, 0
  br i1 %52, label %53, label %55

53:                                               ; preds = %49
  %54 = load i32, ptr %6, align 4, !tbaa !24
  br label %60

55:                                               ; preds = %49
  %56 = load i32, ptr %6, align 4, !tbaa !24
  %57 = icmp ne i32 %56, 0
  %58 = xor i1 %57, true
  %59 = zext i1 %58 to i32
  br label %60

60:                                               ; preds = %55, %53
  %61 = phi i32 [ %54, %53 ], [ %59, %55 ]
  store i32 %61, ptr %3, align 4
  store i32 1, ptr %7, align 4
  br label %62

62:                                               ; preds = %60, %44
  call void @llvm.lifetime.end.p0(i64 4, ptr %6) #13
  %63 = load i32, ptr %3, align 4
  ret i32 %63
}