; Function Attrs: mustprogress nofree nosync nounwind willreturn memory(read, inaccessiblemem: none) uwtable
define internal fastcc noundef range(i32 0, 32769) i32 @_ZL11match_classii(i32 noundef range(i32 0, 256) %0, i32 noundef range(i32 0, 256) %1) unnamed_addr #5 {
tolower.exit:
  %2 = tail call ptr @__ctype_tolower_loc() #17
  %3 = load ptr, ptr %2, align 8, !tbaa !41
  %4 = zext nneg i32 %1 to i64
  %5 = getelementptr inbounds nuw i32, ptr %3, i64 %4
  %6 = load i32, ptr %5, align 4, !tbaa !43
  switch i32 %6, label %84 [
    i32 97, label %7
    i32 99, label %15
    i32 100, label %23
    i32 103, label %25
    i32 108, label %33
    i32 112, label %41
    i32 115, label %49
    i32 117, label %57
    i32 119, label %65
    i32 120, label %73
    i32 122, label %81
  ]

7:                                                ; preds = %tolower.exit
  %8 = tail call ptr @__ctype_b_loc() #17
  %9 = load ptr, ptr %8, align 8, !tbaa !97
  %10 = zext nneg i32 %0 to i64
  %11 = getelementptr inbounds nuw i16, ptr %9, i64 %10
  %12 = load i16, ptr %11, align 2, !tbaa !99
  %13 = and i16 %12, 1024
  %14 = zext nneg i16 %13 to i32
  br label %87

15:                                               ; preds = %tolower.exit
  %16 = tail call ptr @__ctype_b_loc() #17
  %17 = load ptr, ptr %16, align 8, !tbaa !97
  %18 = zext nneg i32 %0 to i64
  %19 = getelementptr inbounds nuw i16, ptr %17, i64 %18
  %20 = load i16, ptr %19, align 2, !tbaa !99
  %21 = and i16 %20, 2
  %22 = zext nneg i16 %21 to i32
  br label %87

23:                                               ; preds = %tolower.exit
  %isdigittmp = add nsw i32 %0, -48
  %isdigit = icmp ult i32 %isdigittmp, 10
  %24 = zext i1 %isdigit to i32
  br label %87

25:                                               ; preds = %tolower.exit
  %26 = tail call ptr @__ctype_b_loc() #17
  %27 = load ptr, ptr %26, align 8, !tbaa !97
  %28 = zext nneg i32 %0 to i64
  %29 = getelementptr inbounds nuw i16, ptr %27, i64 %28
  %30 = load i16, ptr %29, align 2, !tbaa !99
  %31 = and i16 %30, -32768
  %32 = zext i16 %31 to i32
  br label %87

33:                                               ; preds = %tolower.exit
  %34 = tail call ptr @__ctype_b_loc() #17
  %35 = load ptr, ptr %34, align 8, !tbaa !97
  %36 = zext nneg i32 %0 to i64
  %37 = getelementptr inbounds nuw i16, ptr %35, i64 %36
  %38 = load i16, ptr %37, align 2, !tbaa !99
  %39 = and i16 %38, 512
  %40 = zext nneg i16 %39 to i32
  br label %87

41:                                               ; preds = %tolower.exit
  %42 = tail call ptr @__ctype_b_loc() #17
  %43 = load ptr, ptr %42, align 8, !tbaa !97
  %44 = zext nneg i32 %0 to i64
  %45 = getelementptr inbounds nuw i16, ptr %43, i64 %44
  %46 = load i16, ptr %45, align 2, !tbaa !99
  %47 = and i16 %46, 4
  %48 = zext nneg i16 %47 to i32
  br label %87

49:                                               ; preds = %tolower.exit
  %50 = tail call ptr @__ctype_b_loc() #17
  %51 = load ptr, ptr %50, align 8, !tbaa !97
  %52 = zext nneg i32 %0 to i64
  %53 = getelementptr inbounds nuw i16, ptr %51, i64 %52
  %54 = load i16, ptr %53, align 2, !tbaa !99
  %55 = and i16 %54, 8192
  %56 = zext nneg i16 %55 to i32
  br label %87

57:                                               ; preds = %tolower.exit
  %58 = tail call ptr @__ctype_b_loc() #17
  %59 = load ptr, ptr %58, align 8, !tbaa !97
  %60 = zext nneg i32 %0 to i64
  %61 = getelementptr inbounds nuw i16, ptr %59, i64 %60
  %62 = load i16, ptr %61, align 2, !tbaa !99
  %63 = and i16 %62, 256
  %64 = zext nneg i16 %63 to i32
  br label %87

65:                                               ; preds = %tolower.exit
  %66 = tail call ptr @__ctype_b_loc() #17
  %67 = load ptr, ptr %66, align 8, !tbaa !97
  %68 = zext nneg i32 %0 to i64
  %69 = getelementptr inbounds nuw i16, ptr %67, i64 %68
  %70 = load i16, ptr %69, align 2, !tbaa !99
  %71 = and i16 %70, 8
  %72 = zext nneg i16 %71 to i32
  br label %87

73:                                               ; preds = %tolower.exit
  %74 = tail call ptr @__ctype_b_loc() #17
  %75 = load ptr, ptr %74, align 8, !tbaa !97
  %76 = zext nneg i32 %0 to i64
  %77 = getelementptr inbounds nuw i16, ptr %75, i64 %76
  %78 = load i16, ptr %77, align 2, !tbaa !99
  %79 = and i16 %78, 4096
  %80 = zext nneg i16 %79 to i32
  br label %87

81:                                               ; preds = %tolower.exit
  %82 = icmp eq i32 %0, 0
  %83 = zext i1 %82 to i32
  br label %87

84:                                               ; preds = %tolower.exit
  %85 = icmp eq i32 %1, %0
  %86 = zext i1 %85 to i32
  br label %95

87:                                               ; preds = %81, %73, %65, %57, %49, %41, %33, %25, %23, %15, %7
  %.0 = phi i32 [ %83, %81 ], [ %80, %73 ], [ %72, %65 ], [ %64, %57 ], [ %56, %49 ], [ %48, %41 ], [ %40, %33 ], [ %32, %25 ], [ %24, %23 ], [ %22, %15 ], [ %14, %7 ]
  %88 = tail call ptr @__ctype_b_loc() #17
  %89 = load ptr, ptr %88, align 8, !tbaa !97
  %90 = getelementptr inbounds nuw i16, ptr %89, i64 %4
  %91 = load i16, ptr %90, align 2, !tbaa !99
  %92 = and i16 %91, 512
  %.not = icmp eq i16 %92, 0
  %.not19 = icmp eq i32 %.0, 0
  %93 = zext i1 %.not19 to i32
  %94 = select i1 %.not, i32 %93, i32 %.0
  br label %95

95:                                               ; preds = %87, %84
  %.018 = phi i32 [ %86, %84 ], [ %94, %87 ]
  ret i32 %.018
}